(lp0
F485.0
aF0.265076956427
aF0.0
aF0.0
aF0.0909270998415
aF0.0
aF-0.0795256916996
aF0.0
aF0.0
aF0.0
aF0.0
aF0.0
aF0.0
aF0.0
aF0.0
aF0.0
aF0.0
aF1.0
aF0.000445632798574
aF13.8701298701
aF3.66233766234
aF1.0
aF3.07172131148
aF0.0
aF0.0
aF55.0
aF2.40504828054
aF0.0321802565008
aF0.00354609929078
aF0.18015963512
aF0.0
aF0.0
aF0.0217738265541
aF0.00205922015172
aF0.0
aF263.948648927
aF0.844358693096
aF0.00763358778626
aF0.0212765957447
aF0.00354609929078
aF0.067880794702
aF0.00354609929078
aF0.0192307692308
aF0.00354609929078
aF0.0
aF0.0
aF0.0
aF0.0
aF0.0
aF0.0
aF0.0
aF0.0
aF0.0
aF0.0
aF0.0
aF0.0
aF0.0
aF0.0
aF0.0
aF0.0122699386503
aF0.0
aF0.0
aF0.000876424189308
aF0.0
aF0.0
aF0.0
aF0.0
aF0.0
aF0.0
aF0.0
aF0.0
aF0.0
aF0.0
aF0.0
aF0.0
aF0.0
aF0.0
aF0.0
aF0.0
aF0.0
aF0.0
aF0.0
aF0.0
aF0.0
aF0.0
aF0.0
aF0.0
aF0.0
aF0.0
aF0.0
aF0.0
aF0.0
aF0.0
aF0.0
aF0.0
aF0.0
aF0.0
aF0.0
aF0.0
aF0.0
a.